; Function Attrs: mustprogress uwtable
define void @_ZN6casadi19DeserializingStream6unpackERc(ptr nocapture noundef nonnull readonly align 8 dereferenceable(41) %0, ptr noundef nonnull align 1 dereferenceable(1) %1) local_unnamed_addr #3 align 2 {
  %3 = alloca i8, align 1
  %4 = getelementptr inbounds i8, ptr %0, i64 32
  %5 = load ptr, ptr %4, align 8
  %6 = tail call noundef nonnull align 8 dereferenceable(16) ptr @_ZNSi3getERc(ptr noundef nonnull align 8 dereferenceable(16) %5, ptr noundef nonnull align 1 dereferenceable(1) %1)
  %7 = load ptr, ptr %4, align 8
  %8 = call noundef nonnull align 8 dereferenceable(16) ptr @_ZNSi3getERc(ptr noundef nonnull align 8 dereferenceable(16) %7, ptr noundef nonnull align 1 dereferenceable(1) %3)
  %9 = load i8, ptr %1, align 1
  %10 = load i8, ptr %3, align 1
  %11 = shl i8 %10, 4
  %12 = add i8 %9, -113
  %13 = add i8 %12, %11
  store i8 %13, ptr %1, align 1
  ret void
}